Certificate:
    Data:
        Version: 3 (0x2)
        Serial Number: 4664 (0x1238)
        Signature Algorithm: sha256WithRSAEncryption
        Issuer: CN=www.modelCA.com, O=Model CA LTD., C=US
        Validity
            Not Before: Oct 13 18:03:15 2023 GMT
            Not After : Oct 10 18:03:15 2033 GMT
        Subject: C=US, O=Bank32 Inc., CN=www.example.com
        Subject Public Key Info:
            Public Key Algorithm: rsaEncryption
                RSA Public-Key: (2048 bit)
                Modulus:
                    00:b6:ab:e9:68:87:81:30:3d:4f:02:b3:05:40:34:
                    2e:20:bf:8a:6f:88:c1:d0:70:da:32:ee:61:6c:48:
                    21:cf:a3:d9:8f:79:7f:3f:9d:d5:ec:a9:87:d7:26:
                    98:d9:ac:6e:55:fd:14:41:ed:23:f4:bb:49:9b:0b:
                    58:33:14:f5:b3:53:13:8c:1d:33:8f:89:2d:ce:54:
                    99:ae:24:67:48:cf:c6:6b:7e:b1:cf:ff:21:93:e2:
                    4b:72:8d:7e:34:59:3f:37:46:9c:44:26:e2:ed:24:
                    6c:b6:1e:05:13:6f:2a:e7:1b:b0:4b:b0:e1:13:91:
                    b8:de:0e:a4:12:1d:51:3e:ff:e3:0d:fb:a9:b9:43:
                    0a:33:1a:9f:e6:94:c8:51:70:d7:67:c3:e5:1e:30:
                    09:02:82:93:33:f8:47:3c:83:f7:83:26:03:9b:58:
                    be:96:c7:71:19:96:9c:94:c7:91:f6:18:c3:f9:2f:
                    99:83:66:e4:af:4b:47:2a:14:7e:16:6d:09:31:5e:
                    a9:78:44:14:13:d5:b1:ee:3d:68:7e:cf:82:8b:8b:
                    58:39:24:92:6d:4e:f6:49:75:56:9a:81:b7:e1:49:
                    de:11:a3:39:24:31:55:ec:be:c1:91:49:a2:cd:e5:
                    91:41:b6:1a:a7:44:2a:ee:49:60:73:bb:5c:1d:ae:
                    73:51
                Exponent: 65537 (0x10001)
        X509v3 extensions:
            X509v3 Basic Constraints: 
                CA:FALSE
            Netscape Comment: 
                OpenSSL Generated Certificate
            X509v3 Subject Key Identifier: 
                BE:A2:D6:A2:67:7E:04:F2:D7:A0:45:93:97:8B:33:2D:2B:46:2B:5A
            X509v3 Authority Key Identifier: 
                keyid:ED:11:AC:CA:8C:DE:00:6D:B3:C6:C4:00:67:12:92:FE:41:C1:06:D4

            X509v3 Subject Alternative Name: 
                DNS:www.example.com, DNS:www.exampleA.com, DNS:www.exampleB.com
    Signature Algorithm: sha256WithRSAEncryption
         36:b3:c9:af:6d:3d:9d:f3:19:55:18:6a:74:bd:5c:ca:46:1d:
         31:bb:bc:e5:60:ce:08:6c:f3:73:2f:b3:24:1e:a3:d0:b4:b0:
         22:1d:d0:b5:68:2e:af:a5:81:3b:88:98:84:8c:f4:4a:9e:0a:
         8a:39:94:54:b0:22:2c:37:2c:41:17:fa:48:95:18:be:4d:16:
         89:42:d7:99:8f:33:3f:e4:17:4b:30:d2:7a:56:7c:26:6c:f5:
         b2:2e:e7:4d:c6:71:f1:78:4d:bf:d9:46:9e:81:6d:d7:79:3d:
         79:40:9f:b3:dd:1c:3c:71:cc:b1:6c:0c:8d:7d:ac:58:d9:29:
         b1:5a:99:f4:3a:4f:2a:ea:15:8d:d3:e2:82:6f:39:7a:f9:a0:
         5e:69:ae:ae:55:7c:d9:bb:55:76:22:4a:9e:47:a4:8f:e5:74:
         a7:05:33:af:d4:5a:98:b0:48:a3:75:e5:57:32:7a:04:59:09:
         3e:19:d4:63:da:6b:94:37:62:7a:9d:9e:44:f8:22:15:30:39:
         ef:cb:77:b0:2f:4b:a0:13:94:9f:af:a9:20:19:2d:ed:fc:f3:
         69:ba:54:f7:95:a1:da:c1:38:5f:c9:21:3f:db:52:99:af:d9:
         6c:a0:e8:84:e9:9e:92:f1:e6:13:29:cd:48:24:f9:b8:28:98:
         d8:e0:fb:bc:de:94:95:39:68:fc:dc:f4:57:05:6a:ca:53:b0:
         99:ca:4c:15:84:5b:00:3d:b1:bc:08:7b:bd:ee:a8:d3:42:63:
         16:4d:b5:6e:19:2a:33:91:cc:96:a4:3f:8c:ad:2a:d7:8e:7c:
         09:7e:c4:d6:eb:3f:d0:1e:85:a0:73:65:55:2d:71:0f:08:d5:
         96:09:5b:2d:e4:e7:97:d8:88:d4:a0:e8:ef:11:84:21:22:e5:
         ba:de:85:5c:83:09:b5:8e:58:5c:68:1a:a7:c6:0d:80:f3:37:
         08:39:9e:19:8b:4e:a7:b7:93:86:84:96:18:94:2a:a4:12:d2:
         a9:5a:6c:d5:6e:66:43:33:5c:ad:8f:85:ab:29:0c:ea:72:0b:
         43:68:f2:f8:0c:22:33:3f:97:59:df:9e:b6:e7:8f:ee:82:7e:
         55:73:0f:09:44:71:43:d3:34:f2:97:8d:03:1b:42:5f:40:6f:
         54:ca:28:6d:10:87:e6:54:e3:fa:52:98:0a:0a:d2:c8:c9:ae:
         50:72:27:f9:e2:51:4a:23:3e:f3:c9:ce:75:c3:5f:d2:dc:cb:
         d0:b7:e8:ec:3b:e3:a1:e1:cb:0a:f5:71:91:e4:5d:ea:b6:98:
         a4:8f:dc:c6:54:df:30:8c:ec:42:89:28:df:04:75:60:32:aa:
         0f:dd:8c:07:d4:32:29:d4
-----BEGIN CERTIFICATE-----
MIIEtTCCAp2gAwIBAgICEjgwDQYJKoZIhvcNAQELBQAwPzEYMBYGA1UEAwwPd3d3
Lm1vZGVsQ0EuY29tMRYwFAYDVQQKDA1Nb2RlbCBDQSBMVEQuMQswCQYDVQQGEwJV
UzAeFw0yMzEwMTMxODAzMTVaFw0zMzEwMTAxODAzMTVaMD0xCzAJBgNVBAYTAlVT
MRQwEgYDVQQKDAtCYW5rMzIgSW5jLjEYMBYGA1UEAwwPd3d3LmV4YW1wbGUuY29t
MIIBIjANBgkqhkiG9w0BAQEFAAOCAQ8AMIIBCgKCAQEAtqvpaIeBMD1PArMFQDQu
IL+Kb4jB0HDaMu5hbEghz6PZj3l/P53V7KmH1yaY2axuVf0UQe0j9LtJmwtYMxT1
s1MTjB0zj4ktzlSZriRnSM/Ga36xz/8hk+JLco1+NFk/N0acRCbi7SRsth4FE28q
5xuwS7DhE5G43g6kEh1RPv/jDfupuUMKMxqf5pTIUXDXZ8PlHjAJAoKTM/hHPIP3
gyYDm1i+lsdxGZaclMeR9hjD+S+Zg2bkr0tHKhR+Fm0JMV6peEQUE9Wx7j1ofs+C
i4tYOSSSbU72SXVWmoG34UneEaM5JDFV7L7BkUmizeWRQbYap0Qq7klgc7tcHa5z
UQIDAQABo4G8MIG5MAkGA1UdEwQCMAAwLAYJYIZIAYb4QgENBB8WHU9wZW5TU0wg
R2VuZXJhdGVkIENlcnRpZmljYXRlMB0GA1UdDgQWBBS+otaiZ34E8tegRZOXizMt
K0YrWjAfBgNVHSMEGDAWgBTtEazKjN4AbbPGxABnEpL+QcEG1DA+BgNVHREENzA1
gg93d3cuZXhhbXBsZS5jb22CEHd3dy5leGFtcGxlQS5jb22CEHd3dy5leGFtcGxl
Qi5jb20wDQYJKoZIhvcNAQELBQADggIBADazya9tPZ3zGVUYanS9XMpGHTG7vOVg
zghs83MvsyQeo9C0sCId0LVoLq+lgTuImISM9EqeCoo5lFSwIiw3LEEX+kiVGL5N
FolC15mPMz/kF0sw0npWfCZs9bIu503GcfF4Tb/ZRp6Bbdd5PXlAn7PdHDxxzLFs
DI19rFjZKbFamfQ6TyrqFY3T4oJvOXr5oF5prq5VfNm7VXYiSp5HpI/ldKcFM6/U
WpiwSKN15VcyegRZCT4Z1GPaa5Q3YnqdnkT4IhUwOe/Ld7AvS6ATlJ+vqSAZLe38
82m6VPeVodrBOF/JIT/bUpmv2Wyg6ITpnpLx5hMpzUgk+bgomNjg+7zelJU5aPzc
9FcFaspTsJnKTBWEWwA9sbwIe73uqNNCYxZNtW4ZKjORzJakP4ytKteOfAl+xNbr
P9AehaBzZVUtcQ8I1ZYJWy3k55fYiNSg6O8RhCEi5brehVyDCbWOWFxoGqfGDYDz
Nwg5nhmLTqe3k4aElhiUKqQS0qlabNVuZkMzXK2PhaspDOpyC0No8vgMIjM/l1nf
nrbnj+6CflVzDwlEcUPTNPKXjQMbQl9Ab1TKKG0Qh+ZU4/pSmAoK0sjJrlByJ/ni
UUojPvPJznXDX9Lcy9C36Ow746Hhywr1cZHkXeq2mKSP3MZU3zCM7EKJKN8EdWAy
qg/djAfUMinU
-----END CERTIFICATE-----
