Certificate:
    Data:
        Version: 3 (0x2)
        Serial Number: 4661 (0x1235)
        Signature Algorithm: sha256WithRSAEncryption
        Issuer: CN=www.modelCA.com, O=Model CA LTD., C=US
        Validity
            Not Before: Oct 13 14:42:24 2023 GMT
            Not After : Oct 10 14:42:24 2033 GMT
        Subject: C=US, O=Bank32 Inc., CN=www.weihong2024.com
        Subject Public Key Info:
            Public Key Algorithm: rsaEncryption
                RSA Public-Key: (2048 bit)
                Modulus:
                    00:cf:ad:2b:a5:57:43:01:28:0e:92:b0:4d:be:70:
                    1a:18:74:15:98:7d:ff:10:16:1e:ba:01:d1:24:fc:
                    91:18:bf:df:68:11:37:59:1f:c7:42:60:51:94:50:
                    f8:33:a8:e4:d7:22:77:c7:f8:37:f7:8b:07:44:52:
                    4f:72:d6:63:69:a8:2d:b1:db:ac:c3:8f:c9:84:be:
                    49:11:50:fe:7a:b3:5e:7e:b8:52:c5:3f:8e:47:95:
                    00:01:a3:d0:b7:fd:36:d4:2d:10:26:0f:3b:f7:72:
                    2a:c7:68:f3:04:75:c1:e0:bb:fe:2d:29:d2:2a:8b:
                    86:a1:d3:00:52:df:83:2a:33:21:41:2b:25:89:0d:
                    93:8e:3f:f3:f7:ae:a4:62:55:e5:94:99:f1:d9:eb:
                    5b:48:08:c9:f9:d8:07:6c:6b:42:2b:ce:6b:45:1f:
                    eb:d3:c5:97:6e:ae:d0:4e:12:91:24:23:35:2e:d1:
                    43:d2:da:69:51:3f:dc:9f:e8:1c:07:09:38:c2:e1:
                    b5:10:26:d5:66:ff:94:54:40:57:a0:7f:5f:d6:33:
                    80:9e:fd:f6:5b:7e:5d:37:dc:46:ed:e0:e2:ac:a6:
                    3f:6b:ab:a8:e9:b7:c4:a6:0e:f2:5a:14:fa:af:d0:
                    cb:8a:e3:4e:b0:4f:03:72:e6:ab:f4:83:a7:1f:f2:
                    db:6d
                Exponent: 65537 (0x10001)
        X509v3 extensions:
            X509v3 Basic Constraints: 
                CA:FALSE
            Netscape Comment: 
                OpenSSL Generated Certificate
            X509v3 Subject Key Identifier: 
                8B:1C:C6:D0:E9:43:AC:5C:21:02:2B:7B:32:5B:20:2D:A6:D4:93:ED
            X509v3 Authority Key Identifier: 
                keyid:ED:11:AC:CA:8C:DE:00:6D:B3:C6:C4:00:67:12:92:FE:41:C1:06:D4

            X509v3 Subject Alternative Name: 
                DNS:www.weihong2024.com, DNS:www.weihong2024A.com, DNS:www.weihong2024B.com
    Signature Algorithm: sha256WithRSAEncryption
         7b:54:96:4e:11:1c:05:fc:46:11:03:8b:6c:ef:1f:51:95:59:
         6f:dc:53:d4:12:e2:23:e0:d4:37:49:be:cb:0d:3e:0a:a0:20:
         84:ae:de:17:03:31:a3:8e:89:93:bc:32:6a:75:8e:82:22:22:
         aa:ce:9c:23:bc:42:60:09:31:cc:1b:29:a9:6a:de:9e:22:9f:
         12:15:39:84:80:55:9f:d6:7b:a7:bf:61:5c:b0:e3:11:32:b4:
         2f:c7:87:14:2f:49:35:2b:2e:18:f9:3f:13:17:1d:3e:66:ff:
         7a:d2:d5:d4:a5:a2:95:27:82:f9:17:ed:57:ed:93:c2:5e:83:
         d8:2c:a1:e6:ee:02:5e:46:21:1e:40:3e:c3:79:ba:51:ed:b0:
         ba:bf:98:be:48:7f:8e:89:c7:1b:d3:68:5c:ef:98:9e:59:f0:
         6b:3d:2a:d4:e9:8e:a5:58:6b:d9:ee:b1:0a:3a:a7:d6:98:6a:
         a8:f3:34:1f:53:33:ff:9a:45:f2:9f:0e:ef:d5:61:57:e5:dc:
         4f:6b:2c:17:fb:07:93:5d:15:94:7e:02:f9:78:b5:03:08:07:
         5e:9a:ad:05:84:44:ff:66:2c:dc:81:ab:52:dd:fb:53:70:e1:
         2b:5e:e2:fa:c7:5d:36:b2:01:59:84:11:6f:79:27:ae:2c:c8:
         03:11:3f:ac:d2:fc:3a:b2:45:95:5a:0d:80:b8:59:b6:1b:23:
         54:b7:2c:4f:2a:00:73:a2:a4:eb:e0:5c:73:d1:d0:ee:01:ee:
         7a:8e:74:3b:b8:fe:22:39:ec:fd:72:5f:4f:e6:d0:73:e0:fd:
         a5:81:e4:6c:be:ac:ad:42:b1:9a:82:54:06:e9:7e:93:cd:28:
         de:8f:ce:4b:d6:05:10:9c:db:1f:d9:6f:66:1b:26:ff:23:f7:
         e4:99:32:2d:dd:6a:f1:f1:41:27:1c:b2:47:16:8d:74:50:21:
         d0:e3:82:50:16:c8:f1:1f:9a:95:4f:f3:82:f5:0b:a3:8f:0c:
         de:3b:08:64:bd:8b:6a:7c:37:86:23:98:5f:c6:c3:4d:ad:a0:
         1d:aa:c5:1d:15:d3:01:a0:e0:1d:ca:21:27:4a:e2:a8:41:36:
         2a:0f:cf:8b:58:69:0d:b8:78:4a:9e:af:8d:db:7b:8c:f2:85:
         8a:df:84:d2:4b:79:51:45:84:b9:d8:bc:e1:ff:0e:7d:e9:81:
         c3:e1:3d:c6:23:5d:06:5c:2a:58:13:33:af:db:3a:9b:9e:6a:
         16:0b:a3:6b:51:8c:88:d9:82:85:d5:2d:51:4b:62:e7:3c:37:
         7f:ff:48:24:7c:39:33:2a:e7:ad:e0:5e:cd:68:7c:68:d2:15:
         f6:50:dc:fd:38:0c:21:2a
-----BEGIN CERTIFICATE-----
MIIExTCCAq2gAwIBAgICEjUwDQYJKoZIhvcNAQELBQAwPzEYMBYGA1UEAwwPd3d3
Lm1vZGVsQ0EuY29tMRYwFAYDVQQKDA1Nb2RlbCBDQSBMVEQuMQswCQYDVQQGEwJV
UzAeFw0yMzEwMTMxNDQyMjRaFw0zMzEwMTAxNDQyMjRaMEExCzAJBgNVBAYTAlVT
MRQwEgYDVQQKDAtCYW5rMzIgSW5jLjEcMBoGA1UEAwwTd3d3LndlaWhvbmcyMDI0
LmNvbTCCASIwDQYJKoZIhvcNAQEBBQADggEPADCCAQoCggEBAM+tK6VXQwEoDpKw
Tb5wGhh0FZh9/xAWHroB0ST8kRi/32gRN1kfx0JgUZRQ+DOo5Ncid8f4N/eLB0RS
T3LWY2moLbHbrMOPyYS+SRFQ/nqzXn64UsU/jkeVAAGj0Lf9NtQtECYPO/dyKsdo
8wR1weC7/i0p0iqLhqHTAFLfgyozIUErJYkNk44/8/eupGJV5ZSZ8dnrW0gIyfnY
B2xrQivOa0Uf69PFl26u0E4SkSQjNS7RQ9LaaVE/3J/oHAcJOMLhtRAm1Wb/lFRA
V6B/X9YzgJ799lt+XTfcRu3g4qymP2urqOm3xKYO8loU+q/Qy4rjTrBPA3Lmq/SD
px/y220CAwEAAaOByDCBxTAJBgNVHRMEAjAAMCwGCWCGSAGG+EIBDQQfFh1PcGVu
U1NMIEdlbmVyYXRlZCBDZXJ0aWZpY2F0ZTAdBgNVHQ4EFgQUixzG0OlDrFwhAit7
MlsgLabUk+0wHwYDVR0jBBgwFoAU7RGsyozeAG2zxsQAZxKS/kHBBtQwSgYDVR0R
BEMwQYITd3d3LndlaWhvbmcyMDI0LmNvbYIUd3d3LndlaWhvbmcyMDI0QS5jb22C
FHd3dy53ZWlob25nMjAyNEIuY29tMA0GCSqGSIb3DQEBCwUAA4ICAQB7VJZOERwF
/EYRA4ts7x9RlVlv3FPUEuIj4NQ3Sb7LDT4KoCCErt4XAzGjjomTvDJqdY6CIiKq
zpwjvEJgCTHMGympat6eIp8SFTmEgFWf1nunv2FcsOMRMrQvx4cUL0k1Ky4Y+T8T
Fx0+Zv960tXUpaKVJ4L5F+1X7ZPCXoPYLKHm7gJeRiEeQD7DebpR7bC6v5i+SH+O
iccb02hc75ieWfBrPSrU6Y6lWGvZ7rEKOqfWmGqo8zQfUzP/mkXynw7v1WFX5dxP
aywX+weTXRWUfgL5eLUDCAdemq0FhET/ZizcgatS3ftTcOErXuL6x102sgFZhBFv
eSeuLMgDET+s0vw6skWVWg2AuFm2GyNUtyxPKgBzoqTr4Fxz0dDuAe56jnQ7uP4i
Oez9cl9P5tBz4P2lgeRsvqytQrGaglQG6X6TzSjej85L1gUQnNsf2W9mGyb/I/fk
mTIt3Wrx8UEnHLJHFo10UCHQ44JQFsjxH5qVT/OC9QujjwzeOwhkvYtqfDeGI5hf
xsNNraAdqsUdFdMBoOAdyiEnSuKoQTYqD8+LWGkNuHhKnq+N23uM8oWK34TSS3lR
RYS52Lzh/w596YHD4T3GI10GXCpYEzOv2zqbnmoWC6NrUYyI2YKF1S1RS2LnPDd/
/0gkfDkzKuet4F7NaHxo0hX2UNz9OAwhKg==
-----END CERTIFICATE-----
