Certificate:
    Data:
        Version: 3 (0x2)
        Serial Number: 4660 (0x1234)
        Signature Algorithm: sha256WithRSAEncryption
        Issuer: CN=www.modelCA.com, O=Model CA LTD., C=US
        Validity
            Not Before: Oct 13 14:24:10 2023 GMT
            Not After : Oct 10 14:24:10 2033 GMT
        Subject: C=US, O=Bank32 Inc., CN=www.weihong2024.com
        Subject Public Key Info:
            Public Key Algorithm: rsaEncryption
                RSA Public-Key: (2048 bit)
                Modulus:
                    00:cf:ad:2b:a5:57:43:01:28:0e:92:b0:4d:be:70:
                    1a:18:74:15:98:7d:ff:10:16:1e:ba:01:d1:24:fc:
                    91:18:bf:df:68:11:37:59:1f:c7:42:60:51:94:50:
                    f8:33:a8:e4:d7:22:77:c7:f8:37:f7:8b:07:44:52:
                    4f:72:d6:63:69:a8:2d:b1:db:ac:c3:8f:c9:84:be:
                    49:11:50:fe:7a:b3:5e:7e:b8:52:c5:3f:8e:47:95:
                    00:01:a3:d0:b7:fd:36:d4:2d:10:26:0f:3b:f7:72:
                    2a:c7:68:f3:04:75:c1:e0:bb:fe:2d:29:d2:2a:8b:
                    86:a1:d3:00:52:df:83:2a:33:21:41:2b:25:89:0d:
                    93:8e:3f:f3:f7:ae:a4:62:55:e5:94:99:f1:d9:eb:
                    5b:48:08:c9:f9:d8:07:6c:6b:42:2b:ce:6b:45:1f:
                    eb:d3:c5:97:6e:ae:d0:4e:12:91:24:23:35:2e:d1:
                    43:d2:da:69:51:3f:dc:9f:e8:1c:07:09:38:c2:e1:
                    b5:10:26:d5:66:ff:94:54:40:57:a0:7f:5f:d6:33:
                    80:9e:fd:f6:5b:7e:5d:37:dc:46:ed:e0:e2:ac:a6:
                    3f:6b:ab:a8:e9:b7:c4:a6:0e:f2:5a:14:fa:af:d0:
                    cb:8a:e3:4e:b0:4f:03:72:e6:ab:f4:83:a7:1f:f2:
                    db:6d
                Exponent: 65537 (0x10001)
        X509v3 extensions:
            X509v3 Basic Constraints: 
                CA:FALSE
            Netscape Comment: 
                OpenSSL Generated Certificate
            X509v3 Subject Key Identifier: 
                8B:1C:C6:D0:E9:43:AC:5C:21:02:2B:7B:32:5B:20:2D:A6:D4:93:ED
            X509v3 Authority Key Identifier: 
                keyid:ED:11:AC:CA:8C:DE:00:6D:B3:C6:C4:00:67:12:92:FE:41:C1:06:D4

    Signature Algorithm: sha256WithRSAEncryption
         17:01:74:07:6f:1e:cc:7d:63:09:e6:6a:b3:cb:03:96:54:60:
         ce:7c:b9:09:87:e3:4e:57:dd:26:78:e2:67:4d:78:ef:f5:cc:
         ea:41:fe:58:b3:49:9a:0f:3d:09:f4:ee:63:83:54:30:a7:2c:
         0b:db:2c:39:9a:3a:80:5b:df:5c:d4:0a:61:75:a7:94:a3:cd:
         15:97:e4:00:6f:76:af:99:d3:b2:90:40:23:97:d8:b0:a2:82:
         24:3d:75:75:04:82:22:91:4f:3b:99:c0:e7:2f:60:9b:27:f7:
         1c:f1:0e:db:58:cc:ba:fd:0f:12:c6:83:e9:21:92:b3:c7:1d:
         ba:ec:c7:61:b4:47:79:32:b4:a3:5b:08:72:b9:d9:d7:b1:5f:
         14:cb:04:07:29:71:5a:e4:c6:c1:db:95:87:5b:74:d6:5d:20:
         98:e9:5b:ad:39:0b:3d:87:33:bd:9c:8d:f3:6c:3f:6e:13:5e:
         c6:31:eb:95:3b:51:79:85:53:67:d5:fc:41:e9:99:aa:d3:37:
         0a:6a:76:7b:76:b0:f1:fa:eb:b4:8e:0b:98:a2:a9:22:99:dd:
         b2:d6:bb:29:27:a9:03:fc:f8:53:88:bb:a2:c0:6b:f7:be:c3:
         e1:8c:ff:c0:fd:2a:c0:31:e6:ea:a1:a6:18:51:c0:67:c5:d2:
         0d:a2:28:f9:36:80:8b:ab:a2:d4:e8:d3:44:a2:1c:01:e2:31:
         d8:a2:bc:f5:57:e8:a7:d0:29:29:b1:5d:00:61:9d:26:f0:2d:
         2f:77:ac:bc:13:7e:de:13:3c:29:fe:22:49:71:dd:23:66:e9:
         21:11:80:2e:14:0f:49:e7:75:4f:58:0b:12:6c:cd:a4:bc:75:
         0a:ba:e1:d8:51:28:46:a2:6c:6a:17:7b:c0:97:3a:da:e8:6d:
         4d:4c:a7:2b:b2:3f:6e:22:3f:1f:95:e8:57:1c:c8:15:62:36:
         54:13:5f:78:31:6c:f7:cc:13:47:74:f5:30:61:d4:56:38:2d:
         ac:a0:22:09:8b:2f:3c:de:d6:42:b5:83:75:88:fa:33:3f:1a:
         c3:91:ae:bf:aa:66:5a:cb:fc:d4:a9:cf:55:eb:9e:4d:94:b1:
         d9:87:c7:ac:e5:d0:5b:f9:8f:c6:d0:39:a7:fe:21:7c:94:cc:
         53:d3:f3:40:d6:dd:5f:30:1d:2a:bd:91:18:92:69:9a:bb:56:
         9b:c6:82:94:52:fb:be:47:e8:0a:74:89:cb:b4:5f:3e:94:40:
         43:2c:0f:65:69:82:92:72:0d:c2:fb:0d:19:c3:85:f9:b4:1b:
         04:93:f7:e9:0a:73:46:44:96:fd:55:d1:30:ce:b3:12:69:3d:
         59:81:d4:79:d3:a5:4a:bc
-----BEGIN CERTIFICATE-----
MIIEdzCCAl+gAwIBAgICEjQwDQYJKoZIhvcNAQELBQAwPzEYMBYGA1UEAwwPd3d3
Lm1vZGVsQ0EuY29tMRYwFAYDVQQKDA1Nb2RlbCBDQSBMVEQuMQswCQYDVQQGEwJV
UzAeFw0yMzEwMTMxNDI0MTBaFw0zMzEwMTAxNDI0MTBaMEExCzAJBgNVBAYTAlVT
MRQwEgYDVQQKDAtCYW5rMzIgSW5jLjEcMBoGA1UEAwwTd3d3LndlaWhvbmcyMDI0
LmNvbTCCASIwDQYJKoZIhvcNAQEBBQADggEPADCCAQoCggEBAM+tK6VXQwEoDpKw
Tb5wGhh0FZh9/xAWHroB0ST8kRi/32gRN1kfx0JgUZRQ+DOo5Ncid8f4N/eLB0RS
T3LWY2moLbHbrMOPyYS+SRFQ/nqzXn64UsU/jkeVAAGj0Lf9NtQtECYPO/dyKsdo
8wR1weC7/i0p0iqLhqHTAFLfgyozIUErJYkNk44/8/eupGJV5ZSZ8dnrW0gIyfnY
B2xrQivOa0Uf69PFl26u0E4SkSQjNS7RQ9LaaVE/3J/oHAcJOMLhtRAm1Wb/lFRA
V6B/X9YzgJ799lt+XTfcRu3g4qymP2urqOm3xKYO8loU+q/Qy4rjTrBPA3Lmq/SD
px/y220CAwEAAaN7MHkwCQYDVR0TBAIwADAsBglghkgBhvhCAQ0EHxYdT3BlblNT
TCBHZW5lcmF0ZWQgQ2VydGlmaWNhdGUwHQYDVR0OBBYEFIscxtDpQ6xcIQIrezJb
IC2m1JPtMB8GA1UdIwQYMBaAFO0RrMqM3gBts8bEAGcSkv5BwQbUMA0GCSqGSIb3
DQEBCwUAA4ICAQAXAXQHbx7MfWMJ5mqzywOWVGDOfLkJh+NOV90meOJnTXjv9czq
Qf5Ys0maDz0J9O5jg1QwpywL2yw5mjqAW99c1AphdaeUo80Vl+QAb3avmdOykEAj
l9iwooIkPXV1BIIikU87mcDnL2CbJ/cc8Q7bWMy6/Q8SxoPpIZKzxx267MdhtEd5
MrSjWwhyudnXsV8UywQHKXFa5MbB25WHW3TWXSCY6VutOQs9hzO9nI3zbD9uE17G
MeuVO1F5hVNn1fxB6Zmq0zcKanZ7drDx+uu0jguYoqkimd2y1rspJ6kD/PhTiLui
wGv3vsPhjP/A/SrAMebqoaYYUcBnxdINoij5NoCLq6LU6NNEohwB4jHYorz1V+in
0CkpsV0AYZ0m8C0vd6y8E37eEzwp/iJJcd0jZukhEYAuFA9J53VPWAsSbM2kvHUK
uuHYUShGomxqF3vAlzra6G1NTKcrsj9uIj8flehXHMgVYjZUE194MWz3zBNHdPUw
YdRWOC2soCIJiy883tZCtYN1iPozPxrDka6/qmZay/zUqc9V655NlLHZh8es5dBb
+Y/G0Dmn/iF8lMxT0/NA1t1fMB0qvZEYkmmau1abxoKUUvu+R+gKdInLtF8+lEBD
LA9laYKScg3C+w0Zw4X5tBsEk/fpCnNGRJb9VdEwzrMSaT1ZgdR506VKvA==
-----END CERTIFICATE-----
