Certificate:
    Data:
        Version: 3 (0x2)
        Serial Number: 4662 (0x1236)
        Signature Algorithm: sha256WithRSAEncryption
        Issuer: CN=www.modelCA.com, O=Model CA LTD., C=US
        Validity
            Not Before: Oct 13 16:44:18 2023 GMT
            Not After : Oct 10 16:44:18 2033 GMT
        Subject: C=US, O=Bank32 Inc., CN=www.example.com
        Subject Public Key Info:
            Public Key Algorithm: rsaEncryption
                RSA Public-Key: (2048 bit)
                Modulus:
                    00:db:c2:db:8e:7c:51:d0:c4:4a:37:5f:7c:24:07:
                    4d:6c:df:5b:e8:e3:7c:b2:99:e6:a0:a2:ee:c6:f8:
                    30:7d:94:46:a6:f6:4f:86:17:77:df:89:18:2d:09:
                    b9:cd:3b:a6:9b:bd:c3:8f:53:f9:58:04:66:19:04:
                    3e:4d:4c:da:75:ea:12:39:de:33:a0:5f:15:0e:d1:
                    0e:51:23:b5:78:a1:47:b4:e2:99:41:6a:5f:7c:5a:
                    ad:f2:ce:17:de:bc:d9:f6:83:90:c8:af:06:12:15:
                    78:6e:57:a3:1f:86:f6:34:bd:ba:f2:16:4e:ae:84:
                    2e:1d:4c:6b:d6:b8:e3:7a:fc:68:5c:7a:75:e5:25:
                    5e:fc:de:75:ef:b2:a7:76:83:ed:51:19:fb:7e:14:
                    45:04:72:1d:b1:33:d8:94:fb:bb:a3:5f:4f:fa:9b:
                    7f:7e:bd:76:6c:7d:3f:09:83:03:04:71:20:52:bc:
                    08:23:a6:d7:07:7d:d7:86:f1:f1:19:07:3a:e9:5a:
                    47:00:ed:d1:1d:c4:c1:1b:81:35:72:f2:1e:ab:44:
                    8d:ca:f3:c4:e6:7c:bf:c8:e7:10:3b:26:2e:2c:94:
                    b9:2c:d6:54:1c:5c:7f:ff:d0:95:01:6b:b4:1f:fe:
                    25:e8:bc:99:c2:09:e9:8d:d2:3b:4d:92:ea:05:46:
                    45:a5
                Exponent: 65537 (0x10001)
        X509v3 extensions:
            X509v3 Basic Constraints: 
                CA:FALSE
            Netscape Comment: 
                OpenSSL Generated Certificate
            X509v3 Subject Key Identifier: 
                96:60:F1:01:9F:F6:D2:00:E1:57:DB:57:34:49:CA:C5:7E:9A:8A:6C
            X509v3 Authority Key Identifier: 
                keyid:ED:11:AC:CA:8C:DE:00:6D:B3:C6:C4:00:67:12:92:FE:41:C1:06:D4

    Signature Algorithm: sha256WithRSAEncryption
         04:c6:29:b8:15:9f:48:5b:bf:c1:69:bf:30:68:40:4a:07:75:
         a9:ad:43:43:5c:52:74:c5:09:64:43:7e:e2:1d:c7:ea:d2:47:
         5b:cd:43:53:18:82:bb:93:f0:bf:fe:15:d0:de:36:f4:2f:19:
         a3:d4:5f:88:c4:6f:1f:b9:97:f1:8e:2a:37:a2:ee:c3:9f:e0:
         4a:71:a4:0e:f4:3c:8c:d5:d2:1d:11:61:72:6b:2c:de:4d:d3:
         c8:85:66:a5:0f:36:53:61:83:23:6c:e8:f0:b9:8c:92:6f:dc:
         a4:2d:18:74:40:02:89:5f:7b:da:e6:99:19:00:d6:c1:89:74:
         b4:53:13:bc:92:9c:1d:82:f3:e2:f8:90:06:d7:e2:0e:4c:49:
         9b:00:e3:91:29:36:f9:34:cf:7f:13:b8:b0:9a:86:a6:2e:1f:
         fd:73:13:38:1f:d6:21:59:85:13:f8:53:17:3f:e5:83:12:f7:
         07:4c:b7:f7:67:3b:2e:fd:b5:00:43:ff:68:1e:e2:c4:e9:25:
         26:8c:ba:19:29:7b:e9:97:bd:ed:c1:e1:3f:ab:79:42:5f:eb:
         64:c0:2a:2f:33:32:c5:a4:72:53:9f:68:75:30:7e:d3:53:b9:
         25:03:fc:84:ab:a0:9e:b6:da:b7:dd:86:5f:14:44:6a:9b:92:
         79:d2:09:33:73:b1:21:e9:3e:48:09:ad:62:62:78:3c:b1:b8:
         09:3e:0a:86:e3:9a:92:6d:5a:ce:d2:60:ce:33:63:72:36:57:
         99:b4:80:aa:92:9d:08:53:6d:28:91:9b:73:ed:12:d3:a7:b0:
         58:d1:9f:33:57:62:35:1a:4f:ea:bc:50:1a:50:05:35:b3:37:
         f2:52:a3:f8:e1:8d:fd:92:a9:16:8e:cf:ce:92:a7:20:2a:d0:
         1d:88:2d:45:36:12:b5:b7:cc:27:ba:a8:64:83:e9:65:b1:97:
         f3:5d:de:8d:db:0b:32:93:5e:b6:d1:d3:ab:b5:07:d3:c7:2a:
         7c:1f:d0:d7:80:c5:0f:49:a8:2c:e8:02:54:9b:2f:b7:7a:96:
         6b:a7:a0:ad:69:a0:e0:51:63:d9:82:49:f5:49:75:ca:7d:05:
         94:41:9a:32:d4:70:3b:7b:c7:63:8c:a2:c8:69:c3:13:75:e3:
         65:cf:fb:32:3f:a1:86:ef:69:77:21:b7:3d:f6:8a:b4:e1:ab:
         37:e8:6c:3d:45:3b:b5:dd:ae:bf:5f:5d:b0:89:db:a6:e8:f0:
         e0:cd:ad:30:a1:94:b2:66:a4:d2:12:77:45:a5:ba:c3:9f:15:
         25:44:5c:30:58:6c:18:fb:3f:4e:01:bb:b6:d4:4c:2c:b1:5b:
         45:47:13:5d:a3:53:51:54
-----BEGIN CERTIFICATE-----
MIIEczCCAlugAwIBAgICEjYwDQYJKoZIhvcNAQELBQAwPzEYMBYGA1UEAwwPd3d3
Lm1vZGVsQ0EuY29tMRYwFAYDVQQKDA1Nb2RlbCBDQSBMVEQuMQswCQYDVQQGEwJV
UzAeFw0yMzEwMTMxNjQ0MThaFw0zMzEwMTAxNjQ0MThaMD0xCzAJBgNVBAYTAlVT
MRQwEgYDVQQKDAtCYW5rMzIgSW5jLjEYMBYGA1UEAwwPd3d3LmV4YW1wbGUuY29t
MIIBIjANBgkqhkiG9w0BAQEFAAOCAQ8AMIIBCgKCAQEA28LbjnxR0MRKN198JAdN
bN9b6ON8spnmoKLuxvgwfZRGpvZPhhd334kYLQm5zTumm73Dj1P5WARmGQQ+TUza
deoSOd4zoF8VDtEOUSO1eKFHtOKZQWpffFqt8s4X3rzZ9oOQyK8GEhV4blejH4b2
NL268hZOroQuHUxr1rjjevxoXHp15SVe/N5177KndoPtURn7fhRFBHIdsTPYlPu7
o19P+pt/fr12bH0/CYMDBHEgUrwII6bXB33XhvHxGQc66VpHAO3RHcTBG4E1cvIe
q0SNyvPE5ny/yOcQOyYuLJS5LNZUHFx//9CVAWu0H/4l6LyZwgnpjdI7TZLqBUZF
pQIDAQABo3sweTAJBgNVHRMEAjAAMCwGCWCGSAGG+EIBDQQfFh1PcGVuU1NMIEdl
bmVyYXRlZCBDZXJ0aWZpY2F0ZTAdBgNVHQ4EFgQUlmDxAZ/20gDhV9tXNEnKxX6a
imwwHwYDVR0jBBgwFoAU7RGsyozeAG2zxsQAZxKS/kHBBtQwDQYJKoZIhvcNAQEL
BQADggIBAATGKbgVn0hbv8FpvzBoQEoHdamtQ0NcUnTFCWRDfuIdx+rSR1vNQ1MY
gruT8L/+FdDeNvQvGaPUX4jEbx+5l/GOKjei7sOf4EpxpA70PIzV0h0RYXJrLN5N
08iFZqUPNlNhgyNs6PC5jJJv3KQtGHRAAolfe9rmmRkA1sGJdLRTE7ySnB2C8+L4
kAbX4g5MSZsA45EpNvk0z38TuLCahqYuH/1zEzgf1iFZhRP4Uxc/5YMS9wdMt/dn
Oy79tQBD/2ge4sTpJSaMuhkpe+mXve3B4T+reUJf62TAKi8zMsWkclOfaHUwftNT
uSUD/ISroJ622rfdhl8URGqbknnSCTNzsSHpPkgJrWJieDyxuAk+CobjmpJtWs7S
YM4zY3I2V5m0gKqSnQhTbSiRm3PtEtOnsFjRnzNXYjUaT+q8UBpQBTWzN/JSo/jh
jf2SqRaOz86SpyAq0B2ILUU2ErW3zCe6qGSD6WWxl/Nd3o3bCzKTXrbR06u1B9PH
Knwf0NeAxQ9JqCzoAlSbL7d6lmunoK1poOBRY9mCSfVJdcp9BZRBmjLUcDt7x2OM
oshpwxN142XP+zI/oYbvaXchtz32irThqzfobD1FO7Xdrr9fXbCJ26bo8ODNrTCh
lLJmpNISd0WlusOfFSVEXDBYbBj7P04Bu7bUTCyxW0VHE12jU1FU
-----END CERTIFICATE-----
