Certificate:
    Data:
        Version: 3 (0x2)
        Serial Number: 4663 (0x1237)
        Signature Algorithm: sha256WithRSAEncryption
        Issuer: CN=www.modelCA.com, O=Model CA LTD., C=US
        Validity
            Not Before: Oct 13 17:39:06 2023 GMT
            Not After : Oct 10 17:39:06 2033 GMT
        Subject: C=US, O=Bank32 Inc., CN=www.example2abc.com
        Subject Public Key Info:
            Public Key Algorithm: rsaEncryption
                RSA Public-Key: (2048 bit)
                Modulus:
                    00:db:ec:47:42:e4:1e:2d:dc:e1:ea:10:6d:68:e3:
                    96:71:d0:5f:9f:93:62:04:21:fd:9a:85:80:5b:b8:
                    f1:74:f5:b0:5a:23:14:ca:a5:76:79:f6:25:c7:db:
                    18:ee:11:33:a1:e6:95:17:b1:c7:3e:a0:4d:8a:e5:
                    1c:53:24:b9:e3:6b:bc:fb:c6:ea:95:94:df:78:45:
                    d8:9d:8d:b7:40:2c:77:53:1d:12:9b:8b:77:ef:2b:
                    06:4d:d6:03:b0:d6:83:a1:f2:dc:a3:2a:ea:62:4c:
                    a5:38:f0:ee:f5:be:32:51:5f:c7:b5:3e:64:99:30:
                    96:ea:8e:66:13:88:e8:53:27:d2:fc:4e:98:0a:6c:
                    ac:24:d2:05:69:c3:1f:a3:e6:2a:77:17:83:52:81:
                    d0:c5:e9:f9:26:75:40:8f:cb:7f:f7:eb:2e:30:7a:
                    0e:c0:61:a7:c3:ae:26:81:2f:15:70:ac:cc:72:47:
                    01:a7:29:5c:d8:9c:70:0a:18:5d:08:f3:f9:c6:0c:
                    f5:6c:2d:b5:68:29:df:18:80:05:a7:98:a1:99:6f:
                    aa:31:e5:8d:6e:f9:f2:48:4f:18:4a:8d:3f:c1:7a:
                    92:53:ad:b9:bb:09:a9:19:81:80:f2:d4:6f:00:13:
                    25:23:53:b6:57:56:1c:d0:bd:85:ee:a2:42:49:df:
                    8f:c7
                Exponent: 65537 (0x10001)
        X509v3 extensions:
            X509v3 Basic Constraints: 
                CA:FALSE
            Netscape Comment: 
                OpenSSL Generated Certificate
            X509v3 Subject Key Identifier: 
                C4:85:10:34:98:EA:2C:82:CB:C8:E2:85:C6:C0:BB:CB:6F:88:55:D8
            X509v3 Authority Key Identifier: 
                keyid:ED:11:AC:CA:8C:DE:00:6D:B3:C6:C4:00:67:12:92:FE:41:C1:06:D4

    Signature Algorithm: sha256WithRSAEncryption
         72:fd:93:51:4a:dc:a6:52:2d:c1:64:fd:32:46:8c:cd:58:6a:
         81:ef:34:6d:8a:f3:e8:39:f7:ba:2a:ba:51:61:f6:4a:31:21:
         81:2b:1a:f4:9c:64:71:02:ff:40:0c:5b:3f:6c:aa:64:de:b8:
         16:6b:bb:bb:e6:fd:96:c0:7d:58:bd:51:d2:4a:05:76:f3:e4:
         3f:42:33:95:92:15:d6:41:b5:79:d4:91:60:62:69:d3:6d:d7:
         7d:78:61:c3:63:e5:e4:4d:e6:3c:2e:44:fe:9f:9e:c4:ae:7a:
         6a:3f:7d:45:b7:91:ad:10:fe:cb:4c:4b:ac:4f:23:a9:49:a3:
         54:1a:9d:7f:67:fa:26:8c:86:bf:cc:51:a3:4a:7c:5e:b2:44:
         8d:0b:59:1d:d9:de:f4:c2:2c:1a:60:b2:92:4e:34:49:da:1e:
         c5:ab:3c:04:6f:41:6e:b3:8b:7c:46:5b:05:03:52:eb:e0:d4:
         a2:48:68:e0:c0:8a:b3:ae:62:20:91:bb:e2:b9:0e:25:9e:57:
         3c:db:a9:cd:1d:0b:b7:9a:95:54:14:13:10:62:45:65:0f:fd:
         c2:3e:aa:89:c3:c0:75:a7:eb:42:3b:67:d7:38:58:46:aa:f5:
         0f:f9:db:89:bd:c8:bf:7e:37:62:79:96:2a:ef:01:cd:ab:6d:
         95:fc:38:f4:a0:51:cc:1c:c4:98:5c:77:20:04:7e:89:b1:60:
         32:ad:01:00:4e:29:18:38:22:d4:29:cf:7c:05:55:0b:d5:d8:
         af:7a:42:ea:88:08:28:fa:c7:8f:a3:72:b7:d9:be:1b:dd:ba:
         fd:c1:71:d1:e6:60:6a:a9:6c:92:fc:0b:57:c5:98:f2:82:43:
         2b:82:0b:3e:ee:ea:b4:c8:cd:ef:b1:f9:39:1a:5b:7f:0d:74:
         df:fd:f1:27:75:0b:69:91:d4:17:b7:31:63:24:c8:70:26:bb:
         71:00:b3:a2:85:49:88:db:1e:f3:a4:65:8e:f8:2d:81:75:af:
         6f:23:ce:e2:9f:1e:7d:a0:f3:5c:85:95:17:0e:f8:02:92:0f:
         13:61:9e:c7:e4:a2:b6:2b:21:4b:07:5f:95:60:5b:13:8a:3c:
         90:15:63:23:5e:54:d5:41:9e:cc:bd:3c:1a:09:96:89:44:71:
         8a:c0:e2:7d:a2:2a:a5:7d:77:42:5b:76:14:0e:66:85:22:23:
         8d:40:28:88:96:6d:ef:a3:47:1f:75:4b:23:55:56:48:bf:23:
         a6:5e:d2:5e:6d:d1:3e:79:fd:7b:c1:cf:56:34:99:7d:0e:3f:
         f7:4b:89:90:30:b9:f0:2c:81:94:d2:5a:81:cd:eb:99:8e:8e:
         db:eb:60:d7:98:9e:d9:48
-----BEGIN CERTIFICATE-----
MIIEdzCCAl+gAwIBAgICEjcwDQYJKoZIhvcNAQELBQAwPzEYMBYGA1UEAwwPd3d3
Lm1vZGVsQ0EuY29tMRYwFAYDVQQKDA1Nb2RlbCBDQSBMVEQuMQswCQYDVQQGEwJV
UzAeFw0yMzEwMTMxNzM5MDZaFw0zMzEwMTAxNzM5MDZaMEExCzAJBgNVBAYTAlVT
MRQwEgYDVQQKDAtCYW5rMzIgSW5jLjEcMBoGA1UEAwwTd3d3LmV4YW1wbGUyYWJj
LmNvbTCCASIwDQYJKoZIhvcNAQEBBQADggEPADCCAQoCggEBANvsR0LkHi3c4eoQ
bWjjlnHQX5+TYgQh/ZqFgFu48XT1sFojFMqldnn2JcfbGO4RM6HmlRexxz6gTYrl
HFMkueNrvPvG6pWU33hF2J2Nt0Asd1MdEpuLd+8rBk3WA7DWg6Hy3KMq6mJMpTjw
7vW+MlFfx7U+ZJkwluqOZhOI6FMn0vxOmApsrCTSBWnDH6PmKncXg1KB0MXp+SZ1
QI/Lf/frLjB6DsBhp8OuJoEvFXCszHJHAacpXNiccAoYXQjz+cYM9WwttWgp3xiA
BaeYoZlvqjHljW758khPGEqNP8F6klOtubsJqRmBgPLUbwATJSNTtldWHNC9he6i
Qknfj8cCAwEAAaN7MHkwCQYDVR0TBAIwADAsBglghkgBhvhCAQ0EHxYdT3BlblNT
TCBHZW5lcmF0ZWQgQ2VydGlmaWNhdGUwHQYDVR0OBBYEFMSFEDSY6iyCy8jihcbA
u8tviFXYMB8GA1UdIwQYMBaAFO0RrMqM3gBts8bEAGcSkv5BwQbUMA0GCSqGSIb3
DQEBCwUAA4ICAQBy/ZNRStymUi3BZP0yRozNWGqB7zRtivPoOfe6KrpRYfZKMSGB
Kxr0nGRxAv9ADFs/bKpk3rgWa7u75v2WwH1YvVHSSgV28+Q/QjOVkhXWQbV51JFg
YmnTbdd9eGHDY+XkTeY8LkT+n57ErnpqP31Ft5GtEP7LTEusTyOpSaNUGp1/Z/om
jIa/zFGjSnxeskSNC1kd2d70wiwaYLKSTjRJ2h7FqzwEb0Fus4t8RlsFA1Lr4NSi
SGjgwIqzrmIgkbviuQ4lnlc826nNHQu3mpVUFBMQYkVlD/3CPqqJw8B1p+tCO2fX
OFhGqvUP+duJvci/fjdieZYq7wHNq22V/Dj0oFHMHMSYXHcgBH6JsWAyrQEATikY
OCLUKc98BVUL1divekLqiAgo+sePo3K32b4b3br9wXHR5mBqqWyS/AtXxZjygkMr
ggs+7uq0yM3vsfk5Glt/DXTf/fEndQtpkdQXtzFjJMhwJrtxALOihUmI2x7zpGWO
+C2Bda9vI87inx59oPNchZUXDvgCkg8TYZ7H5KK2KyFLB1+VYFsTijyQFWMjXlTV
QZ7MvTwaCZaJRHGKwOJ9oiqlfXdCW3YUDmaFIiONQCiIlm3vo0cfdUsjVVZIvyOm
XtJebdE+ef17wc9WNJl9Dj/3S4mQMLnwLIGU0lqBzeuZjo7b62DXmJ7ZSA==
-----END CERTIFICATE-----
